target datalayout = "e-m:e-p270:32:32-p271:32:32-p272:64:64-i64:64-i128:128-f80:128-n8:16:32:64-S128"
target triple = "x86_64-pc-linux-gnu"

%struct.mbedtls_psa_cipher_operation_t = type { i32, i8, i8, %union.anon }
%union.anon = type { %struct.mbedtls_cipher_context_t }
%struct.mbedtls_cipher_context_t = type { ptr, i32, i32, ptr, ptr, [16 x i8], i64, [16 x i8], i64, ptr, ptr }

; Function Attrs: nounwind uwtable
define hidden i32 @mbedtls_psa_cipher_abort(ptr noundef %0) #0 {
  %2 = alloca i32, align 4
  %3 = alloca ptr, align 8
  store ptr %0, ptr %3, align 8, !tbaa !12
  %4 = load ptr, ptr %3, align 8, !tbaa !12
  %5 = getelementptr inbounds nuw %struct.mbedtls_psa_cipher_operation_t, ptr %4, i32 0, i32 0
  %6 = load i32, ptr %5, align 8, !tbaa !24
  %7 = and i32 %6, 2130706432
  %8 = icmp eq i32 %7, 67108864
  br i1 %8, label %10, label %9

9:                                                ; preds = %1
  store i32 -137, ptr %2, align 4
  br label %13

10:                                               ; preds = %1
  %11 = load ptr, ptr %3, align 8, !tbaa !12
  %12 = getelementptr inbounds nuw %struct.mbedtls_psa_cipher_operation_t, ptr %11, i32 0, i32 3
  call void @mbedtls_cipher_free(ptr noundef %12)
  store i32 0, ptr %2, align 4
  br label %13

13:                                               ; preds = %10, %9
  %14 = load i32, ptr %2, align 4
  ret i32 %14
}