; Function Attrs: nounwind uwtable
define hidden range(i32 -137, 1) i32 @mbedtls_psa_cipher_abort(ptr noundef %0) local_unnamed_addr #2 {
  %2 = load i32, ptr %0, align 8, !tbaa !13
  %3 = and i32 %2, 2130706432
  %4 = icmp eq i32 %3, 67108864
  br i1 %4, label %5, label %7

5:                                                ; preds = %1
  %6 = getelementptr inbounds nuw i8, ptr %0, i64 8
  tail call void @mbedtls_cipher_free(ptr noundef nonnull %6) #8
  br label %7

7:                                                ; preds = %1, %5
  %.0 = phi i32 [ 0, %5 ], [ -137, %1 ]
  ret i32 %.0
}